; ModuleID = '31/1303.c'
source_filename = "31/1303.c"
target datalayout = "e-m:e-p270:32:32-p271:32:32-p272:64:64-i64:64-f80:128-n8:16:32:64-S128"
target triple = "x86_64-pc-linux-gnu"

%struct.student = type { [20 x i8], [20 x i8], i8, i32, [20 x i8], [20 x i8], %struct.student* }

@.str = private unnamed_addr constant [19 x i8] c"%s %s %c %d %s %s\0A\00", align 1
@n = common dso_local global i32 0, align 4
@.str.1 = private unnamed_addr constant [14 x i8] c"%s%s %c%d%s%s\00", align 1
@.str.2 = private unnamed_addr constant [3 x i8] c"%s\00", align 1
@.str.3 = private unnamed_addr constant [4 x i8] c"end\00", align 1
@.str.4 = private unnamed_addr constant [12 x i8] c"%s %c%d%s%s\00", align 1

; Function Attrs: noinline nounwind uwtable
define dso_local void @main() #0 {
  %1 = alloca %struct.student*, align 8
  %2 = alloca i32, align 4
  store i32 0, i32* %2, align 4
  %3 = call %struct.student* @creat()
  store %struct.student* %3, %struct.student** %1, align 8
  br label %4

4:                                                ; preds = %7, %0
  %5 = load %struct.student*, %struct.student** %1, align 8
  %6 = icmp ne %struct.student* %5, null
  br i1 %6, label %7, label %31

7:                                                ; preds = %4
  %8 = load %struct.student*, %struct.student** %1, align 8
  %9 = getelementptr inbounds %struct.student, %struct.student* %8, i32 0, i32 0
  %10 = getelementptr inbounds [20 x i8], [20 x i8]* %9, i64 0, i64 0
  %11 = load %struct.student*, %struct.student** %1, align 8
  %12 = getelementptr inbounds %struct.student, %struct.student* %11, i32 0, i32 1
  %13 = getelementptr inbounds [20 x i8], [20 x i8]* %12, i64 0, i64 0
  %14 = load %struct.student*, %struct.student** %1, align 8
  %15 = getelementptr inbounds %struct.student, %struct.student* %14, i32 0, i32 2
  %16 = load i8, i8* %15, align 8
  %17 = sext i8 %16 to i32
  %18 = load %struct.student*, %struct.student** %1, align 8
  %19 = getelementptr inbounds %struct.student, %struct.student* %18, i32 0, i32 3
  %20 = load i32, i32* %19, align 4
  %21 = load %struct.student*, %struct.student** %1, align 8
  %22 = getelementptr inbounds %struct.student, %struct.student* %21, i32 0, i32 4
  %23 = getelementptr inbounds [20 x i8], [20 x i8]* %22, i64 0, i64 0
  %24 = load %struct.student*, %struct.student** %1, align 8
  %25 = getelementptr inbounds %struct.student, %struct.student* %24, i32 0, i32 5
  %26 = getelementptr inbounds [20 x i8], [20 x i8]* %25, i64 0, i64 0
  %27 = call i32 (i8*, ...) @printf(i8* getelementptr inbounds ([19 x i8], [19 x i8]* @.str, i64 0, i64 0), i8* %10, i8* %13, i32 %17, i32 %20, i8* %23, i8* %26)
  %28 = load %struct.student*, %struct.student** %1, align 8
  %29 = getelementptr inbounds %struct.student, %struct.student* %28, i32 0, i32 6
  %30 = load %struct.student*, %struct.student** %29, align 8
  store %struct.student* %30, %struct.student** %1, align 8
  br label %4

31:                                               ; preds = %4
  ret void
}

; Function Attrs: noinline nounwind uwtable
define dso_local %struct.student* @creat() #0 {
  %1 = alloca i32, align 4
  %2 = alloca %struct.student*, align 8
  %3 = alloca %struct.student*, align 8
  %4 = alloca %struct.student*, align 8
  store i32 0, i32* @n, align 4
  %5 = call noalias i8* @malloc(i64 96) #4
  %6 = bitcast i8* %5 to %struct.student*
  store %struct.student* %6, %struct.student** %3, align 8
  store %struct.student* %6, %struct.student** %4, align 8
  %7 = load %struct.student*, %struct.student** %3, align 8
  %8 = getelementptr inbounds %struct.student, %struct.student* %7, i32 0, i32 0
  %9 = getelementptr inbounds [20 x i8], [20 x i8]* %8, i64 0, i64 0
  %10 = load %struct.student*, %struct.student** %3, align 8
  %11 = getelementptr inbounds %struct.student, %struct.student* %10, i32 0, i32 1
  %12 = getelementptr inbounds [20 x i8], [20 x i8]* %11, i64 0, i64 0
  %13 = load %struct.student*, %struct.student** %3, align 8
  %14 = getelementptr inbounds %struct.student, %struct.student* %13, i32 0, i32 2
  %15 = load %struct.student*, %struct.student** %3, align 8
  %16 = getelementptr inbounds %struct.student, %struct.student* %15, i32 0, i32 3
  %17 = load %struct.student*, %struct.student** %3, align 8
  %18 = getelementptr inbounds %struct.student, %struct.student* %17, i32 0, i32 4
  %19 = getelementptr inbounds [20 x i8], [20 x i8]* %18, i64 0, i64 0
  %20 = load %struct.student*, %struct.student** %3, align 8
  %21 = getelementptr inbounds %struct.student, %struct.student* %20, i32 0, i32 5
  %22 = getelementptr inbounds [20 x i8], [20 x i8]* %21, i64 0, i64 0
  %23 = call i32 (i8*, ...) @__isoc99_scanf(i8* getelementptr inbounds ([14 x i8], [14 x i8]* @.str.1, i64 0, i64 0), i8* %9, i8* %12, i8* %14, i32* %16, i8* %19, i8* %22)
  br label %24

24:                                               ; preds = %73, %0
  %25 = load %struct.student*, %struct.student** %4, align 8
  %26 = icmp ne %struct.student* %25, null
  br i1 %26, label %27, label %74

27:                                               ; preds = %24
  %28 = load i32, i32* @n, align 4
  %29 = add nsw i32 %28, 1
  store i32 %29, i32* @n, align 4
  %30 = load i32, i32* @n, align 4
  %31 = icmp eq i32 %30, 1
  br i1 %31, label %32, label %35

32:                                               ; preds = %27
  %33 = load %struct.student*, %struct.student** %4, align 8
  %34 = getelementptr inbounds %struct.student, %struct.student* %33, i32 0, i32 6
  store %struct.student* null, %struct.student** %34, align 8
  br label %39

35:                                               ; preds = %27
  %36 = load %struct.student*, %struct.student** %4, align 8
  %37 = load %struct.student*, %struct.student** %3, align 8
  %38 = getelementptr inbounds %struct.student, %struct.student* %37, i32 0, i32 6
  store %struct.student* %36, %struct.student** %38, align 8
  br label %39

39:                                               ; preds = %35, %32
  %40 = load %struct.student*, %struct.student** %3, align 8
  store %struct.student* %40, %struct.student** %4, align 8
  %41 = call noalias i8* @malloc(i64 96) #4
  %42 = bitcast i8* %41 to %struct.student*
  store %struct.student* %42, %struct.student** %3, align 8
  %43 = load %struct.student*, %struct.student** %3, align 8
  %44 = getelementptr inbounds %struct.student, %struct.student* %43, i32 0, i32 0
  %45 = getelementptr inbounds [20 x i8], [20 x i8]* %44, i64 0, i64 0
  %46 = call i32 (i8*, ...) @__isoc99_scanf(i8* getelementptr inbounds ([3 x i8], [3 x i8]* @.str.2, i64 0, i64 0), i8* %45)
  %47 = load %struct.student*, %struct.student** %3, align 8
  %48 = getelementptr inbounds %struct.student, %struct.student* %47, i32 0, i32 0
  %49 = getelementptr inbounds [20 x i8], [20 x i8]* %48, i64 0, i64 0
  %50 = call i32 @strcmp(i8* %49, i8* getelementptr inbounds ([4 x i8], [4 x i8]* @.str.3, i64 0, i64 0)) #5
  store i32 %50, i32* %1, align 4
  %51 = load i32, i32* %1, align 4
  %52 = icmp eq i32 %51, 0
  br i1 %52, label %53, label %54

53:                                               ; preds = %39
  br label %74

54:                                               ; preds = %39
  %55 = load i32, i32* %1, align 4
  %56 = icmp ne i32 %55, 0
  br i1 %56, label %57, label %72

57:                                               ; preds = %54
  %58 = load %struct.student*, %struct.student** %3, align 8
  %59 = getelementptr inbounds %struct.student, %struct.student* %58, i32 0, i32 1
  %60 = getelementptr inbounds [20 x i8], [20 x i8]* %59, i64 0, i64 0
  %61 = load %struct.student*, %struct.student** %3, align 8
  %62 = getelementptr inbounds %struct.student, %struct.student* %61, i32 0, i32 2
  %63 = load %struct.student*, %struct.student** %3, align 8
  %64 = getelementptr inbounds %struct.student, %struct.student* %63, i32 0, i32 3
  %65 = load %struct.student*, %struct.student** %3, align 8
  %66 = getelementptr inbounds %struct.student, %struct.student* %65, i32 0, i32 4
  %67 = getelementptr inbounds [20 x i8], [20 x i8]* %66, i64 0, i64 0
  %68 = load %struct.student*, %struct.student** %3, align 8
  %69 = getelementptr inbounds %struct.student, %struct.student* %68, i32 0, i32 5
  %70 = getelementptr inbounds [20 x i8], [20 x i8]* %69, i64 0, i64 0
  %71 = call i32 (i8*, ...) @__isoc99_scanf(i8* getelementptr inbounds ([12 x i8], [12 x i8]* @.str.4, i64 0, i64 0), i8* %60, i8* %62, i32* %64, i8* %67, i8* %70)
  br label %72

72:                                               ; preds = %57, %54
  br label %73

73:                                               ; preds = %72
  br label %24

74:                                               ; preds = %53, %24
  %75 = load %struct.student*, %struct.student** %4, align 8
  ret %struct.student* %75
}

declare dso_local i32 @printf(i8*, ...) #1

; Function Attrs: nounwind
declare dso_local noalias i8* @malloc(i64) #2

declare dso_local i32 @__isoc99_scanf(i8*, ...) #1

; Function Attrs: nounwind readonly
declare dso_local i32 @strcmp(i8*, i8*) #3


!llvm.module.flags = !{!0}
!llvm.ident = !{!1}

!0 = !{i32 1, !"wchar_size", i32 4}
!1 = !{!"clang version 10.0.0-4ubuntu1 "}
